; Function Attrs: mustprogress uwtable
define void @_ZN5arrow2io16HadoopFileSystem11GetCapacityEPl(ptr noalias sret(%"class.arrow::Status") align 8 %agg.result, ptr nocapture noundef nonnull readonly align 8 dereferenceable(16) %this, ptr nocapture noundef writeonly %nbytes) local_unnamed_addr #0 align 2 {
entry:
  %impl_ = getelementptr inbounds i8, ptr %this, i64 8
  %0 = load ptr, ptr %impl_, align 8
  tail call void @llvm.experimental.noalias.scope.decl(metadata !280)
  %1 = load ptr, ptr %0, align 8, !noalias !280
  %fs_.i = getelementptr inbounds i8, ptr %0, i64 112
  %2 = load ptr, ptr %fs_.i, align 8, !noalias !280
  %call.i = tail call noundef i64 @_ZN5arrow2io8internal11LibHdfsShim11GetCapacityEP13hdfs_internal(ptr noundef nonnull align 8 dereferenceable(312) %1, ptr noundef %2), !noalias !280
  %cmp.i = icmp eq i64 %call.i, -1
  br i1 %cmp.i, label %if.then.i, label %do.end.i

if.then.i:                                        ; preds = %entry
  %call2.i = tail call ptr @__errno_location() #23
  %3 = load i32, ptr %call2.i, align 4, !noalias !280
  tail call void @_ZN5arrow8internal15StatusFromErrnoIJRA6_KcRA12_S2_RA8_S2_EEENS_6StatusEiNS_10StatusCodeEDpOT_(ptr sret(%"class.arrow::Status") align 8 %agg.result, i32 noundef %3, i8 noundef signext 5, ptr noundef nonnull align 1 dereferenceable(6) @.str.2, ptr noundef nonnull align 1 dereferenceable(12) @.str.19, ptr noundef nonnull align 1 dereferenceable(8) @.str.4)
  br label %_ZN5arrow2io16HadoopFileSystem20HadoopFileSystemImpl11GetCapacityEPl.exit

do.end.i:                                         ; preds = %entry
  store i64 %call.i, ptr %nbytes, align 8, !noalias !280
  store ptr null, ptr %agg.result, align 8, !alias.scope !283
  br label %_ZN5arrow2io16HadoopFileSystem20HadoopFileSystemImpl11GetCapacityEPl.exit

_ZN5arrow2io16HadoopFileSystem20HadoopFileSystemImpl11GetCapacityEPl.exit: ; preds = %if.then.i, %do.end.i
  ret void
}